Certificate:
    Data:
        Version: 1 (0x0)
        Serial Number: 12986640374529690050 (0xb439d09d4d9689c2)
    Signature Algorithm: sha256WithRSAEncryption
        Issuer: C=BR, ST=Sao Paulo, L=Sao Paulo, O=YARP, OU=Security, CN=127.0.0.1
        Validity
            Not Before: Jun  4 20:43:41 2022 GMT
            Not After : Aug 24 20:43:41 2056 GMT
        Subject: C=BR, ST=Sao Paulo, O=YARP, OU=Security, CN=127.0.0.1
        Subject Public Key Info:
            Public Key Algorithm: rsaEncryption
                Public-Key: (2048 bit)
                Modulus:
                    00:a7:bf:73:0e:c1:e3:05:5f:3c:dc:da:f8:9f:9f:
                    3e:ae:43:8f:25:6b:09:ef:0b:11:73:9b:b5:b1:d6:
                    f7:35:5e:30:68:8b:50:56:ee:5c:0d:18:83:82:55:
                    95:2f:0b:e0:01:e2:d2:f5:de:dc:d4:de:22:b6:2f:
                    35:c9:1c:41:79:10:50:97:71:1f:34:60:a4:f6:cc:
                    f0:4c:a5:6c:68:16:3a:50:0b:ff:e4:7a:14:e9:b2:
                    7a:a4:8b:ce:1a:49:3f:9d:2e:57:40:a9:e1:e9:27:
                    d9:c7:e7:d5:b7:03:6d:23:a6:15:3d:aa:f6:f0:c5:
                    fc:3e:96:c0:f0:af:15:a3:dd:93:82:e1:11:d6:30:
                    01:5c:6b:4d:5c:f5:da:13:06:0f:4e:aa:e8:41:54:
                    11:7c:46:7b:e5:6f:f7:5c:c3:66:27:cd:80:9d:82:
                    46:8f:e8:41:2b:b4:53:42:22:7e:67:b2:7f:87:73:
                    6e:b0:39:80:43:4c:a9:0c:18:5e:01:e4:41:e4:33:
                    32:62:fb:e5:94:17:f9:e4:4e:23:86:cf:90:d9:db:
                    f6:a8:72:a8:bd:78:67:af:e8:00:38:d0:49:ff:9b:
                    c8:a7:de:b2:b8:23:a0:69:be:f8:a3:e9:95:f4:40:
                    ea:c4:9c:24:1d:a6:57:3c:32:ab:5c:c2:3a:bd:cc:
                    a8:57
                Exponent: 65537 (0x10001)
    Signature Algorithm: sha256WithRSAEncryption
         b8:2e:b9:aa:89:e5:fb:4f:58:56:96:10:a1:c1:b2:77:dd:46:
         cf:f2:8f:a9:7d:a6:12:1f:5e:05:12:29:7c:93:cd:65:91:02:
         e0:a5:33:41:fd:86:81:2c:31:bf:23:6e:57:fd:aa:69:23:ef:
         57:5c:af:b1:a9:20:7b:ea:26:07:38:12:9f:31:e6:83:4b:0b:
         43:10:94:bd:23:18:17:74:e1:70:be:75:db:0a:5a:f7:eb:6d:
         bb:20:c1:81:d3:37:9b:8f:68:5d:3e:3d:fd:c4:0b:64:6f:54:
         1f:87:c8:7b:7e:07:e5:3f:a6:00:e9:45:a2:0b:be:da:63:a6:
         13:0b:fa:ca:a3:26:ab:75:3b:97:64:98:14:40:f1:82:aa:a3:
         00:0c:bd:e8:1a:57:ad:3e:c1:9d:76:27:b4:d9:60:74:65:8a:
         c2:51:98:d9:2c:c6:70:a2:97:56:fb:3d:a0:50:a9:4b:be:51:
         ef:a1:8b:94:18:de:41:62:5c:0f:70:83:0e:15:d8:7d:c1:6e:
         10:c1:64:03:5a:b2:47:73:76:30:3c:36:6a:27:64:e6:4e:ab:
         a3:07:b4:13:a5:3d:06:d8:a5:e4:4d:a9:e0:96:ef:69:39:8d:
         d3:50:c6:42:b9:63:b0:f7:47:0c:41:33:64:64:e4:f7:90:0c:
         57:8d:b5:4b
-----BEGIN CERTIFICATE-----
MIIDQDCCAigCCQC0OdCdTZaJwjANBgkqhkiG9w0BAQsFADBrMQswCQYDVQQGEwJC
UjESMBAGA1UECAwJU2FvIFBhdWxvMRIwEAYDVQQHDAlTYW8gUGF1bG8xDTALBgNV
BAoMBFlBUlAxETAPBgNVBAsMCFNlY3VyaXR5MRIwEAYDVQQDDAkxMjcuMC4wLjEw
IBcNMjIwNjA0MjA0MzQxWhgPMjA1NjA4MjQyMDQzNDFaMFcxCzAJBgNVBAYTAkJS
MRIwEAYDVQQIDAlTYW8gUGF1bG8xDTALBgNVBAoMBFlBUlAxETAPBgNVBAsMCFNl
Y3VyaXR5MRIwEAYDVQQDDAkxMjcuMC4wLjEwggEiMA0GCSqGSIb3DQEBAQUAA4IB
DwAwggEKAoIBAQCnv3MOweMFXzzc2vifnz6uQ48lawnvCxFzm7Wx1vc1XjBoi1BW
7lwNGIOCVZUvC+AB4tL13tzU3iK2LzXJHEF5EFCXcR80YKT2zPBMpWxoFjpQC//k
ehTpsnqki84aST+dLldAqeHpJ9nH59W3A20jphU9qvbwxfw+lsDwrxWj3ZOC4RHW
MAFca01c9doTBg9OquhBVBF8Rnvlb/dcw2YnzYCdgkaP6EErtFNCIn5nsn+Hc26w
OYBDTKkMGF4B5EHkMzJi++WUF/nkTiOGz5DZ2/aocqi9eGev6AA40En/m8in3rK4
I6Bpvvij6ZX0QOrEnCQdplc8Mqtcwjq9zKhXAgMBAAEwDQYJKoZIhvcNAQELBQAD
ggEBALguuaqJ5ftPWFaWEKHBsnfdRs/yj6l9phIfXgUSKXyTzWWRAuClM0H9hoEs
Mb8jblf9qmkj71dcr7GpIHvqJgc4Ep8x5oNLC0MQlL0jGBd04XC+ddsKWvfrbbsg
wYHTN5uPaF0+Pf3EC2RvVB+HyHt+B+U/pgDpRaILvtpjphML+sqjJqt1O5dkmBRA
8YKqowAMvegaV60+wZ12J7TZYHRlisJRmNksxnCil1b7PaBQqUu+Ue+hi5QY3kFi
XA9wgw4V2H3BbhDBZANaskdzdjA8NmonZOZOq6MHtBOlPQbYpeRNqeCW72k5jdNQ
xkK5Y7D3RwxBM2Rk5PeQDFeNtUs=
-----END CERTIFICATE-----
