Certificate:
    Data:
        Version: 1 (0x0)
        Serial Number: 9411801056361122168 (0x829d6f31e50d0978)
    Signature Algorithm: sha256WithRSAEncryption
        Issuer: C=XX, ST=Untrusted, L=Evilland, O=Eve, OU=Haxxxxxxxx, CN=127.0.0.1
        Validity
            Not Before: Jun  4 20:43:42 2022 GMT
            Not After : Aug 24 20:43:42 2056 GMT
        Subject: C=XX, ST=Untrusted, O=Eve, OU=Haxxxxxxxx, CN=127.0.0.1
        Subject Public Key Info:
            Public Key Algorithm: rsaEncryption
                Public-Key: (2048 bit)
                Modulus:
                    00:bc:47:1c:29:fe:e6:e0:7e:ae:24:58:60:8c:70:
                    25:a3:e3:ad:51:aa:86:1b:ef:0d:8d:a0:c1:b7:23:
                    ce:86:90:89:73:d7:e4:f6:5e:e5:bf:d3:c2:d5:00:
                    a2:96:a7:1e:15:e2:39:e0:77:f2:18:8d:ac:0f:ed:
                    bf:ea:5a:09:fd:2a:8c:11:a7:b3:c0:7e:bd:5e:b0:
                    b8:9c:d6:34:1d:66:3d:75:8c:b4:45:25:e9:e7:80:
                    9d:64:a4:3a:0c:40:70:5b:1d:12:23:81:d0:10:d0:
                    0c:9f:81:48:ce:06:ac:a7:ec:dc:7e:73:8c:ce:c5:
                    e5:71:d1:7b:a7:1f:aa:c9:44:58:88:81:bc:83:f4:
                    95:25:ff:40:22:0a:a9:56:72:55:51:17:4f:71:a9:
                    9f:2d:1d:ab:57:c3:d9:b6:e6:cc:8d:aa:c8:2d:7d:
                    f1:58:04:50:01:9e:98:07:9b:d4:35:19:40:f7:2a:
                    43:12:13:d8:56:b0:fc:9d:6e:e1:fa:cd:29:6e:9f:
                    22:08:fa:c2:f1:b8:91:1a:bf:72:99:25:60:a2:58:
                    f9:b7:bb:95:43:b8:a2:3f:16:75:cc:b7:56:49:e0:
                    00:4d:3b:a1:07:a6:a5:f8:f2:81:b0:e4:66:5f:2c:
                    b8:e8:87:e4:9d:45:15:fc:3c:9f:89:6b:b3:db:ed:
                    dd:cd
                Exponent: 65537 (0x10001)
    Signature Algorithm: sha256WithRSAEncryption
         56:bd:5e:c6:44:4e:1c:90:40:32:d2:70:0a:d0:6c:13:de:14:
         fa:f2:a7:47:cd:17:d4:a5:72:a3:35:32:35:33:b8:b8:0f:d3:
         1f:3f:66:32:09:35:4a:ee:bd:b6:52:65:da:10:cf:0b:79:b9:
         f8:e0:61:5e:5d:dd:09:84:b6:9b:e8:4e:a5:15:dd:c0:79:ca:
         09:f2:0d:6d:c8:49:cb:dc:6a:45:09:b2:27:51:62:f5:04:03:
         51:fe:f4:74:50:ba:68:bb:89:6f:e6:1d:02:b3:e1:08:1b:9b:
         fc:40:23:39:2e:46:a4:62:a9:a8:f0:d8:3b:43:43:cd:7c:a5:
         5c:2c:6c:64:dc:61:2c:90:6d:34:6e:20:06:30:47:74:5a:03:
         e9:b4:66:76:4d:fe:36:34:e3:50:9b:5d:d3:7c:a1:c2:a1:52:
         71:53:bd:3c:3b:fd:a3:62:35:2c:ff:6f:46:8e:e7:1d:fd:28:
         88:12:b2:70:12:a0:d1:d5:32:6e:95:3b:75:67:09:f8:2a:4f:
         b4:e0:32:b8:ad:70:3b:5b:af:9a:3c:18:57:fa:0a:6b:ba:bf:
         25:9e:c5:75:eb:d1:59:c0:e4:7a:9b:c1:d6:86:92:89:d7:0c:
         47:58:4e:9a:e1:6d:71:32:8d:31:35:66:8e:07:e7:31:5e:22:
         6d:3e:78:0a
-----BEGIN CERTIFICATE-----
MIIDQTCCAikCCQCCnW8x5Q0JeDANBgkqhkiG9w0BAQsFADBrMQswCQYDVQQGEwJY
WDESMBAGA1UECAwJVW50cnVzdGVkMREwDwYDVQQHDAhFdmlsbGFuZDEMMAoGA1UE
CgwDRXZlMRMwEQYDVQQLDApIYXh4eHh4eHh4MRIwEAYDVQQDDAkxMjcuMC4wLjEw
IBcNMjIwNjA0MjA0MzQyWhgPMjA1NjA4MjQyMDQzNDJaMFgxCzAJBgNVBAYTAlhY
MRIwEAYDVQQIDAlVbnRydXN0ZWQxDDAKBgNVBAoMA0V2ZTETMBEGA1UECwwKSGF4
eHh4eHh4eDESMBAGA1UEAwwJMTI3LjAuMC4xMIIBIjANBgkqhkiG9w0BAQEFAAOC
AQ8AMIIBCgKCAQEAvEccKf7m4H6uJFhgjHAlo+OtUaqGG+8NjaDBtyPOhpCJc9fk
9l7lv9PC1QCilqceFeI54HfyGI2sD+2/6loJ/SqMEaezwH69XrC4nNY0HWY9dYy0
RSXp54CdZKQ6DEBwWx0SI4HQENAMn4FIzgasp+zcfnOMzsXlcdF7px+qyURYiIG8
g/SVJf9AIgqpVnJVURdPcamfLR2rV8PZtubMjarILX3xWARQAZ6YB5vUNRlA9ypD
EhPYVrD8nW7h+s0pbp8iCPrC8biRGr9ymSVgolj5t7uVQ7iiPxZ1zLdWSeAATTuh
B6al+PKBsORmXyy46IfknUUV/DyfiWuz2+3dzQIDAQABMA0GCSqGSIb3DQEBCwUA
A4IBAQBWvV7GRE4ckEAy0nAK0GwT3hT68qdHzRfUpXKjNTI1M7i4D9MfP2YyCTVK
7r22UmXaEM8Lebn44GFeXd0JhLab6E6lFd3AecoJ8g1tyEnL3GpFCbInUWL1BANR
/vR0ULpou4lv5h0Cs+EIG5v8QCM5LkakYqmo8Ng7Q0PNfKVcLGxk3GEskG00biAG
MEd0WgPptGZ2Tf42NONQm13TfKHCoVJxU708O/2jYjUs/29Gjucd/SiIErJwEqDR
1TJulTt1Zwn4Kk+04DK4rXA7W6+aPBhX+gprur8lnsV169FZwOR6m8HWhpKJ1wxH
WE6a4W1xMo0xNWaOB+cxXiJtPngK
-----END CERTIFICATE-----
